; Function Attrs: nounwind uwtable
define internal i32 @SpoolssAddForm_r(ptr noundef %0, i32 noundef %1, ptr noundef %2, ptr noundef %3, ptr noundef %4, ptr noundef %5) #0 {
  %7 = load i32, ptr @hf_form, align 4
  %8 = tail call ptr @proto_tree_add_uint(ptr noundef %3, i32 noundef %7, ptr noundef %0, i32 noundef %1, i32 noundef 0, i32 noundef 1) #5
  %.not.i = icmp eq ptr %8, null
  br i1 %.not.i, label %proto_item_set_hidden.exit, label %9

9:                                                ; preds = %6
  %10 = getelementptr inbounds nuw i8, ptr %8, i64 32
  %11 = load ptr, ptr %10, align 8
  %.not5.i = icmp eq ptr %11, null
  br i1 %.not5.i, label %proto_item_set_hidden.exit, label %12

12:                                               ; preds = %9
  %13 = getelementptr inbounds nuw i8, ptr %11, i64 28
  %14 = load i32, ptr %13, align 4
  %15 = or i32 %14, 1
  store i32 %15, ptr %13, align 4
  br label %proto_item_set_hidden.exit

proto_item_set_hidden.exit:                       ; preds = %6, %9, %12
  %16 = load i32, ptr @hf_rc, align 4
  %17 = tail call i32 @dissect_doserror(ptr noundef %0, i32 noundef %1, ptr noundef %2, ptr noundef %3, ptr noundef %4, ptr noundef %5, i32 noundef %16, ptr noundef null) #5
  ret i32 %17
}